target datalayout = "e-m:e-p270:32:32-p271:32:32-p272:64:64-i64:64-i128:128-f80:128-n8:16:32:64-S128"
target triple = "x86_64-pc-linux-gnu"

%struct.bio_st = type { ptr, ptr, ptr, ptr, ptr, i32, i32, i32, i32, i32, ptr, ptr, ptr, %struct.CRYPTO_REF_COUNT, i64, i64, %struct.crypto_ex_data_st }
%struct.CRYPTO_REF_COUNT = type { i32 }
%struct.crypto_ex_data_st = type { ptr, ptr }
%struct.bio_bio_st = type { ptr, i32, i64, i64, i64, ptr, i64 }

@.str = private unnamed_addr constant [32 x i8] c"../openssl/crypto/bio/bss_bio.c\00", align 1
@__func__.bio_write = private unnamed_addr constant [10 x i8] c"bio_write\00", align 1

; Function Attrs: nounwind uwtable
define internal i32 @bio_write(ptr noundef %0, ptr noundef %1, i32 noundef %2) #0 {
  %4 = alloca i32, align 4
  %5 = alloca ptr, align 8
  %6 = alloca ptr, align 8
  %7 = alloca i32, align 4
  %8 = alloca i64, align 8
  %9 = alloca i64, align 8
  %10 = alloca ptr, align 8
  %11 = alloca i32, align 4
  %12 = alloca i64, align 8
  %13 = alloca i64, align 8
  store ptr %0, ptr %5, align 8, !tbaa !10
  store ptr %1, ptr %6, align 8, !tbaa !26
  store i32 %2, ptr %7, align 4, !tbaa !12
  call void @llvm.lifetime.start.p0(i64 8, ptr %8) #5
  %14 = load i32, ptr %7, align 4, !tbaa !12
  %15 = sext i32 %14 to i64
  store i64 %15, ptr %8, align 8, !tbaa !8
  call void @llvm.lifetime.start.p0(i64 8, ptr %9) #5
  call void @llvm.lifetime.start.p0(i64 8, ptr %10) #5
  %16 = load ptr, ptr %5, align 8, !tbaa !10
  call void @BIO_clear_flags(ptr noundef %16, i32 noundef 15)
  %17 = load ptr, ptr %5, align 8, !tbaa !10
  %18 = getelementptr inbounds nuw %struct.bio_st, ptr %17, i32 0, i32 5
  %19 = load i32, ptr %18, align 8, !tbaa !16
  %20 = icmp ne i32 %19, 0
  br i1 %20, label %21, label %27

21:                                               ; preds = %3
  %22 = load ptr, ptr %6, align 8, !tbaa !26
  %23 = icmp eq ptr %22, null
  br i1 %23, label %27, label %24

24:                                               ; preds = %21
  %25 = load i32, ptr %7, align 4, !tbaa !12
  %26 = icmp sle i32 %25, 0
  br i1 %26, label %27, label %28

27:                                               ; preds = %24, %21, %3
  store i32 0, ptr %4, align 4
  store i32 1, ptr %11, align 4
  br label %129

28:                                               ; preds = %24
  %29 = load ptr, ptr %5, align 8, !tbaa !10
  %30 = getelementptr inbounds nuw %struct.bio_st, ptr %29, i32 0, i32 10
  %31 = load ptr, ptr %30, align 8, !tbaa !27
  store ptr %31, ptr %10, align 8, !tbaa !28
  %32 = load ptr, ptr %10, align 8, !tbaa !28
  %33 = getelementptr inbounds nuw %struct.bio_bio_st, ptr %32, i32 0, i32 6
  store i64 0, ptr %33, align 8, !tbaa !30
  %34 = load ptr, ptr %10, align 8, !tbaa !28
  %35 = getelementptr inbounds nuw %struct.bio_bio_st, ptr %34, i32 0, i32 1
  %36 = load i32, ptr %35, align 8, !tbaa !32
  %37 = icmp ne i32 %36, 0
  br i1 %37, label %38, label %39

38:                                               ; preds = %28
  call void @ERR_new()
  call void @ERR_set_debug(ptr noundef @.str, i32 noundef 287, ptr noundef @__func__.bio_write)
  call void (i32, i32, ptr, ...) @ERR_set_error(i32 noundef 32, i32 noundef 124, ptr noundef null)
  store i32 -1, ptr %4, align 4
  store i32 1, ptr %11, align 4
  br label %129

39:                                               ; preds = %28
  %40 = load ptr, ptr %10, align 8, !tbaa !28
  %41 = getelementptr inbounds nuw %struct.bio_bio_st, ptr %40, i32 0, i32 2
  %42 = load i64, ptr %41, align 8, !tbaa !33
  %43 = load ptr, ptr %10, align 8, !tbaa !28
  %44 = getelementptr inbounds nuw %struct.bio_bio_st, ptr %43, i32 0, i32 4
  %45 = load i64, ptr %44, align 8, !tbaa !34
  %46 = icmp eq i64 %42, %45
  br i1 %46, label %47, label %49

47:                                               ; preds = %39
  %48 = load ptr, ptr %5, align 8, !tbaa !10
  call void @BIO_set_flags(ptr noundef %48, i32 noundef 10)
  store i32 -1, ptr %4, align 4
  store i32 1, ptr %11, align 4
  br label %129

49:                                               ; preds = %39
  %50 = load i64, ptr %8, align 8, !tbaa !8
  %51 = load ptr, ptr %10, align 8, !tbaa !28
  %52 = getelementptr inbounds nuw %struct.bio_bio_st, ptr %51, i32 0, i32 4
  %53 = load i64, ptr %52, align 8, !tbaa !34
  %54 = load ptr, ptr %10, align 8, !tbaa !28
  %55 = getelementptr inbounds nuw %struct.bio_bio_st, ptr %54, i32 0, i32 2
  %56 = load i64, ptr %55, align 8, !tbaa !33
  %57 = sub i64 %53, %56
  %58 = icmp ugt i64 %50, %57
  br i1 %58, label %59, label %67

59:                                               ; preds = %49
  %60 = load ptr, ptr %10, align 8, !tbaa !28
  %61 = getelementptr inbounds nuw %struct.bio_bio_st, ptr %60, i32 0, i32 4
  %62 = load i64, ptr %61, align 8, !tbaa !34
  %63 = load ptr, ptr %10, align 8, !tbaa !28
  %64 = getelementptr inbounds nuw %struct.bio_bio_st, ptr %63, i32 0, i32 2
  %65 = load i64, ptr %64, align 8, !tbaa !33
  %66 = sub i64 %62, %65
  store i64 %66, ptr %8, align 8, !tbaa !8
  br label %67

67:                                               ; preds = %59, %49
  %68 = load i64, ptr %8, align 8, !tbaa !8
  store i64 %68, ptr %9, align 8, !tbaa !8
  br label %69

69:                                               ; preds = %123, %67
  call void @llvm.lifetime.start.p0(i64 8, ptr %12) #5
  call void @llvm.lifetime.start.p0(i64 8, ptr %13) #5
  %70 = load ptr, ptr %10, align 8, !tbaa !28
  %71 = getelementptr inbounds nuw %struct.bio_bio_st, ptr %70, i32 0, i32 3
  %72 = load i64, ptr %71, align 8, !tbaa !35
  %73 = load ptr, ptr %10, align 8, !tbaa !28
  %74 = getelementptr inbounds nuw %struct.bio_bio_st, ptr %73, i32 0, i32 2
  %75 = load i64, ptr %74, align 8, !tbaa !33
  %76 = add i64 %72, %75
  store i64 %76, ptr %12, align 8, !tbaa !8
  %77 = load i64, ptr %12, align 8, !tbaa !8
  %78 = load ptr, ptr %10, align 8, !tbaa !28
  %79 = getelementptr inbounds nuw %struct.bio_bio_st, ptr %78, i32 0, i32 4
  %80 = load i64, ptr %79, align 8, !tbaa !34
  %81 = icmp uge i64 %77, %80
  br i1 %81, label %82, label %88

82:                                               ; preds = %69
  %83 = load ptr, ptr %10, align 8, !tbaa !28
  %84 = getelementptr inbounds nuw %struct.bio_bio_st, ptr %83, i32 0, i32 4
  %85 = load i64, ptr %84, align 8, !tbaa !34
  %86 = load i64, ptr %12, align 8, !tbaa !8
  %87 = sub i64 %86, %85
  store i64 %87, ptr %12, align 8, !tbaa !8
  br label %88

88:                                               ; preds = %82, %69
  %89 = load i64, ptr %12, align 8, !tbaa !8
  %90 = load i64, ptr %9, align 8, !tbaa !8
  %91 = add i64 %89, %90
  %92 = load ptr, ptr %10, align 8, !tbaa !28
  %93 = getelementptr inbounds nuw %struct.bio_bio_st, ptr %92, i32 0, i32 4
  %94 = load i64, ptr %93, align 8, !tbaa !34
  %95 = icmp ule i64 %91, %94
  br i1 %95, label %96, label %98

96:                                               ; preds = %88
  %97 = load i64, ptr %9, align 8, !tbaa !8
  store i64 %97, ptr %13, align 8, !tbaa !8
  br label %104

98:                                               ; preds = %88
  %99 = load ptr, ptr %10, align 8, !tbaa !28
  %100 = getelementptr inbounds nuw %struct.bio_bio_st, ptr %99, i32 0, i32 4
  %101 = load i64, ptr %100, align 8, !tbaa !34
  %102 = load i64, ptr %12, align 8, !tbaa !8
  %103 = sub i64 %101, %102
  store i64 %103, ptr %13, align 8, !tbaa !8
  br label %104

104:                                              ; preds = %98, %96
  %105 = load ptr, ptr %10, align 8, !tbaa !28
  %106 = getelementptr inbounds nuw %struct.bio_bio_st, ptr %105, i32 0, i32 5
  %107 = load ptr, ptr %106, align 8, !tbaa !36
  %108 = load i64, ptr %12, align 8, !tbaa !8
  %109 = getelementptr inbounds nuw i8, ptr %107, i64 %108
  %110 = load ptr, ptr %6, align 8, !tbaa !26
  %111 = load i64, ptr %13, align 8, !tbaa !8
  call void @llvm.memcpy.p0.p0.i64(ptr align 1 %109, ptr align 1 %110, i64 %111, i1 false)
  %112 = load i64, ptr %13, align 8, !tbaa !8
  %113 = load ptr, ptr %10, align 8, !tbaa !28
  %114 = getelementptr inbounds nuw %struct.bio_bio_st, ptr %113, i32 0, i32 2
  %115 = load i64, ptr %114, align 8, !tbaa !33
  %116 = add i64 %115, %112
  store i64 %116, ptr %114, align 8, !tbaa !33
  %117 = load i64, ptr %13, align 8, !tbaa !8
  %118 = load i64, ptr %9, align 8, !tbaa !8
  %119 = sub i64 %118, %117
  store i64 %119, ptr %9, align 8, !tbaa !8
  %120 = load i64, ptr %13, align 8, !tbaa !8
  %121 = load ptr, ptr %6, align 8, !tbaa !26
  %122 = getelementptr inbounds nuw i8, ptr %121, i64 %120
  store ptr %122, ptr %6, align 8, !tbaa !26
  call void @llvm.lifetime.end.p0(i64 8, ptr %13) #5
  call void @llvm.lifetime.end.p0(i64 8, ptr %12) #5
  br label %123

123:                                              ; preds = %104
  %124 = load i64, ptr %9, align 8, !tbaa !8
  %125 = icmp ne i64 %124, 0
  br i1 %125, label %69, label %126, !llvm.loop !37

126:                                              ; preds = %123
  %127 = load i64, ptr %8, align 8, !tbaa !8
  %128 = trunc i64 %127 to i32
  store i32 %128, ptr %4, align 4
  store i32 1, ptr %11, align 4
  br label %129

129:                                              ; preds = %126, %47, %38, %27
  call void @llvm.lifetime.end.p0(i64 8, ptr %10) #5
  call void @llvm.lifetime.end.p0(i64 8, ptr %9) #5
  call void @llvm.lifetime.end.p0(i64 8, ptr %8) #5
  %130 = load i32, ptr %4, align 4
  ret i32 %130
}