; Function Attrs: nounwind uwtable
define internal i32 @bio_write(ptr noundef %0, ptr noundef readonly captures(address_is_null) %1, i32 noundef %2) #1 {
  %4 = sext i32 %2 to i64
  tail call void @BIO_clear_flags(ptr noundef %0, i32 noundef 15) #8
  %5 = getelementptr inbounds nuw i8, ptr %0, i64 40
  %6 = load i32, ptr %5, align 8, !tbaa !8
  %7 = icmp eq i32 %6, 0
  %8 = icmp eq ptr %1, null
  %or.cond = or i1 %8, %7
  %9 = icmp slt i32 %2, 1
  %or.cond3 = or i1 %9, %or.cond
  br i1 %or.cond3, label %44, label %10

10:                                               ; preds = %3
  %11 = getelementptr inbounds nuw i8, ptr %0, i64 64
  %12 = load ptr, ptr %11, align 8, !tbaa !20
  %13 = getelementptr inbounds nuw i8, ptr %12, i64 48
  store i64 0, ptr %13, align 8, !tbaa !21
  %14 = getelementptr inbounds nuw i8, ptr %12, i64 8
  %15 = load i32, ptr %14, align 8, !tbaa !23
  %.not = icmp eq i32 %15, 0
  br i1 %.not, label %17, label %16

16:                                               ; preds = %10
  tail call void @ERR_new() #8
  tail call void @ERR_set_debug(ptr noundef nonnull @.str, i32 noundef 287, ptr noundef nonnull @__func__.bio_write) #8
  tail call void (i32, i32, ptr, ...) @ERR_set_error(i32 noundef 32, i32 noundef 124, ptr noundef null) #8
  br label %44

17:                                               ; preds = %10
  %18 = getelementptr inbounds nuw i8, ptr %12, i64 16
  %19 = load i64, ptr %18, align 8, !tbaa !24
  %20 = getelementptr inbounds nuw i8, ptr %12, i64 32
  %21 = load i64, ptr %20, align 8, !tbaa !25
  %22 = icmp eq i64 %19, %21
  br i1 %22, label %23, label %24

23:                                               ; preds = %17
  tail call void @BIO_set_flags(ptr noundef nonnull %0, i32 noundef 10) #8
  br label %44

24:                                               ; preds = %17
  %25 = sub i64 %21, %19
  %spec.select = tail call i64 @llvm.umin.i64(i64 %25, i64 %4)
  %26 = getelementptr inbounds nuw i8, ptr %12, i64 24
  %27 = getelementptr inbounds nuw i8, ptr %12, i64 40
  br label %28

28:                                               ; preds = %28, %24
  %29 = phi i64 [ %19, %24 ], [ %39, %28 ]
  %.048 = phi ptr [ %1, %24 ], [ %41, %28 ]
  %.046 = phi i64 [ %spec.select, %24 ], [ %40, %28 ]
  %30 = load i64, ptr %26, align 8, !tbaa !26
  %31 = add i64 %29, %30
  %32 = load i64, ptr %20, align 8, !tbaa !25
  %.not58 = icmp ult i64 %31, %32
  %33 = select i1 %.not58, i64 0, i64 %32
  %spec.select61 = sub nuw i64 %31, %33
  %34 = add i64 %spec.select61, %.046
  %.not59 = icmp ugt i64 %34, %32
  %35 = sub i64 %32, %spec.select61
  %.0 = select i1 %.not59, i64 %35, i64 %.046
  %36 = load ptr, ptr %27, align 8, !tbaa !27
  %37 = getelementptr inbounds nuw i8, ptr %36, i64 %spec.select61
  tail call void @llvm.memcpy.p0.p0.i64(ptr align 1 %37, ptr align 1 %.048, i64 %.0, i1 false)
  %38 = load i64, ptr %18, align 8, !tbaa !24
  %39 = add i64 %.0, %38
  store i64 %39, ptr %18, align 8, !tbaa !24
  %40 = sub i64 %.046, %.0
  %41 = getelementptr inbounds nuw i8, ptr %.048, i64 %.0
  %.not60 = icmp eq i64 %40, 0
  br i1 %.not60, label %42, label %28, !llvm.loop !28

42:                                               ; preds = %28
  %43 = trunc nuw i64 %spec.select to i32
  br label %44

44:                                               ; preds = %3, %42, %23, %16
  %.045 = phi i32 [ -1, %16 ], [ -1, %23 ], [ %43, %42 ], [ 0, %3 ]
  ret i32 %.045
}